; Function Attrs: nofree norecurse nosync nounwind memory(readwrite, inaccessiblemem: none) uwtable
define dso_local void @strbuf_trim_trailing_dir_sep(ptr noundef captures(none) %0) local_unnamed_addr #9 {
  %2 = getelementptr inbounds nuw i8, ptr %0, i64 8
  %.promoted = load i64, ptr %2, align 8, !tbaa !16
  %.not8 = icmp eq i64 %.promoted, 0
  %.phi.trans.insert = getelementptr inbounds nuw i8, ptr %0, i64 16
  %.pre = load ptr, ptr %.phi.trans.insert, align 8, !tbaa !12
  br i1 %.not8, label %.critedge, label %.lr.ph

.lr.ph:                                           ; preds = %1
  %invariant.gep = getelementptr i8, ptr %.pre, i64 -1
  br label %3

3:                                                ; preds = %.lr.ph, %6
  %4 = phi i64 [ %.promoted, %.lr.ph ], [ %7, %6 ]
  %gep = getelementptr i8, ptr %invariant.gep, i64 %4
  %5 = load i8, ptr %gep, align 1, !tbaa !4
  %.not7 = icmp eq i8 %5, 47
  br i1 %.not7, label %6, label %.critedge

6:                                                ; preds = %3
  %7 = add i64 %4, -1
  store i64 %7, ptr %2, align 8, !tbaa !16
  %.not = icmp eq i64 %7, 0
  br i1 %.not, label %.critedge, label %3, !llvm.loop !20

.critedge:                                        ; preds = %3, %6, %1
  %.lcssa = phi i64 [ 0, %1 ], [ 0, %6 ], [ %4, %3 ]
  %8 = getelementptr inbounds nuw i8, ptr %.pre, i64 %.lcssa
  store i8 0, ptr %8, align 1, !tbaa !4
  ret void
}